target datalayout = "e-m:e-p270:32:32-p271:32:32-p272:64:64-i64:64-i128:128-f80:128-n8:16:32:64-S128"
target triple = "x86_64-pc-linux-gnu"

%struct.reassembly_table = type { ptr, ptr, ptr, ptr, ptr }
%struct.reassembly_table_functions = type { ptr, ptr, ptr, ptr, ptr, ptr }

@proto_register_tftp.ett = internal global [4 x ptr] [ptr @ett_tftp, ptr @ett_tftp_option, ptr @ett_tftp_fragment, ptr @ett_tftp_fragments], align 16
@.str.80 = private unnamed_addr constant [31 x i8] c"Trivial File Transfer Protocol\00", align 1
@.str.81 = private unnamed_addr constant [5 x i8] c"TFTP\00", align 1
@.str.82 = private unnamed_addr constant [5 x i8] c"tftp\00", align 1
@proto_tftp = internal global i32 0, align 4
@.str.83 = private unnamed_addr constant [13 x i8] c"TFTP payload\00", align 1
@heur_subdissector_list = internal global ptr null, align 8
@tftp_reassembly_table = internal global %struct.reassembly_table zeroinitializer, align 8
@addresses_ports_reassembly_table_functions = external constant %struct.reassembly_table_functions, align 8
@tftp_handle = internal global ptr null, align 8
@.str.84 = private unnamed_addr constant [11 x i8] c"defragment\00", align 1
@.str.85 = private unnamed_addr constant [33 x i8] c"Reassemble fragmented TFTP files\00", align 1
@.str.86 = private unnamed_addr constant [52 x i8] c"Whether fragmented TFTP files should be reassembled\00", align 1
@tftp_defragment = internal global i8 0, align 1
@tftp_eo_tap = internal global i32 0, align 4

; Function Attrs: null_pointer_is_valid sspstrong uwtable
define hidden void @proto_register_tftp() #0 {
  %1 = alloca ptr, align 8
  %2 = alloca ptr, align 8
  call void @llvm.lifetime.start.p0(i64 8, ptr %1) #12
  call void @llvm.lifetime.start.p0(i64 8, ptr %2) #12
  %3 = call i32 @proto_register_protocol(ptr noundef @.str.80, ptr noundef @.str.81, ptr noundef @.str.82)
  store i32 %3, ptr @proto_tftp, align 4
  %4 = load i32, ptr @proto_tftp, align 4
  call void @proto_register_field_array(i32 noundef %4, ptr noundef @proto_register_tftp.hf, i32 noundef 24)
  call void @proto_register_subtree_array(ptr noundef @proto_register_tftp.ett, i32 noundef 4)
  %5 = load i32, ptr @proto_tftp, align 4
  %6 = call ptr @expert_register_protocol(i32 noundef %5)
  store ptr %6, ptr %2, align 8
  %7 = load ptr, ptr %2, align 8
  call void @expert_register_field_array(ptr noundef %7, ptr noundef @proto_register_tftp.ei, i32 noundef 7)
  %8 = load i32, ptr @proto_tftp, align 4
  %9 = call ptr @register_heur_dissector_list_with_description(ptr noundef @.str.82, ptr noundef @.str.83, i32 noundef %8)
  store ptr %9, ptr @heur_subdissector_list, align 8
  call void @reassembly_table_register(ptr noundef @tftp_reassembly_table, ptr noundef @addresses_ports_reassembly_table_functions)
  %10 = load i32, ptr @proto_tftp, align 4
  %11 = call ptr @register_dissector(ptr noundef @.str.82, ptr noundef @dissect_tftp, i32 noundef %10)
  store ptr %11, ptr @tftp_handle, align 8
  %12 = load i32, ptr @proto_tftp, align 4
  %13 = call ptr @prefs_register_protocol(i32 noundef %12, ptr noundef @apply_tftp_prefs)
  store ptr %13, ptr %1, align 8
  %14 = load ptr, ptr %1, align 8
  call void @prefs_register_bool_preference(ptr noundef %14, ptr noundef @.str.84, ptr noundef @.str.85, ptr noundef @.str.86, ptr noundef @tftp_defragment)
  %15 = load i32, ptr @proto_tftp, align 4
  %16 = call i32 @register_export_object(i32 noundef %15, ptr noundef @tftp_eo_packet, ptr noundef null)
  store i32 %16, ptr @tftp_eo_tap, align 4
  call void @llvm.lifetime.end.p0(i64 8, ptr %2) #12
  call void @llvm.lifetime.end.p0(i64 8, ptr %1) #12
  ret void
}