; Function Attrs: null_pointer_is_valid sspstrong uwtable
define hidden void @proto_register_tftp() local_unnamed_addr #0 {
  %1 = tail call i32 @proto_register_protocol(ptr noundef nonnull @.str.80, ptr noundef nonnull @.str.81, ptr noundef nonnull @.str.82)
  store i32 %1, ptr @proto_tftp, align 4
  tail call void @proto_register_field_array(i32 noundef %1, ptr noundef nonnull @proto_register_tftp.hf, i32 noundef 24)
  tail call void @proto_register_subtree_array(ptr noundef nonnull @proto_register_tftp.ett, i32 noundef 4)
  %2 = load i32, ptr @proto_tftp, align 4
  %3 = tail call ptr @expert_register_protocol(i32 noundef %2)
  tail call void @expert_register_field_array(ptr noundef %3, ptr noundef nonnull @proto_register_tftp.ei, i32 noundef 7)
  %4 = load i32, ptr @proto_tftp, align 4
  %5 = tail call ptr @register_heur_dissector_list_with_description(ptr noundef nonnull @.str.82, ptr noundef nonnull @.str.83, i32 noundef %4)
  store ptr %5, ptr @heur_subdissector_list, align 8
  tail call void @reassembly_table_register(ptr noundef nonnull @tftp_reassembly_table, ptr noundef nonnull @addresses_ports_reassembly_table_functions)
  %6 = load i32, ptr @proto_tftp, align 4
  %7 = tail call ptr @register_dissector(ptr noundef nonnull @.str.82, ptr noundef nonnull @dissect_tftp, i32 noundef %6)
  store ptr %7, ptr @tftp_handle, align 8
  %8 = load i32, ptr @proto_tftp, align 4
  %9 = tail call ptr @prefs_register_protocol(i32 noundef %8, ptr noundef nonnull @apply_tftp_prefs)
  tail call void @prefs_register_bool_preference(ptr noundef %9, ptr noundef nonnull @.str.84, ptr noundef nonnull @.str.85, ptr noundef nonnull @.str.86, ptr noundef nonnull @tftp_defragment)
  %10 = load i32, ptr @proto_tftp, align 4
  %11 = tail call i32 @register_export_object(i32 noundef %10, ptr noundef nonnull @tftp_eo_packet, ptr noundef null)
  store i32 %11, ptr @tftp_eo_tap, align 4
  ret void
}